(dp1
S'output'
p2
S"<type 'exceptions.SyntaxError'> invalid syntax (<string>, line 1)"
p3
sS'layer'
p4
S'/Dropbox/Dropbox/Datos/Python/Proyectos/topolab12_v2/web2py/applications/init/controllers/hasse.py'
p5
sS'code'
p6
S'# -*- coding: utf-8 -*-\n# this file is released under public domain and you can use without limitations\n\n#########################################################################\n## This is a sample controller\n## - index is the default action of any application\n## - user is required for authentication and authorization\n## - download is for downloading files uploaded in the db (does streaming)\n## - call exposes all registered services (none by default)\n#########################################################################\n\n\n\n\ndef index():\n    """\n    example action using the internationalization operator T and flash\n    rendered by views/default/index.html or views/generic.html\n\n    if you need a simple wiki simply replace the two lines below with:\n    return auth.wiki()\n    """\n    response.flash = T("Welcome to topolab.org")\n    return dict(message=T(\'Estamos en la versi\xc3\xb3n 13\'))\n\n\ndef topo1():\n\n    logger.info(\'Entro en topo1\')\n\n\n    form = SQLFORM.factory(\n        Field(\'points\', requires=IS_NOT_EMPTY()),\n        Field(\'basis\', requires=IS_NOT_EMPTY()))\n    if form.process(onvalidation=form_processing_es_una_base).accepted:\n        response.flash = \'form accepted\'\n        session.points = form.vars.points\n        session.basis = form.vars.basis\n        redirect(URL(\'topo4\'))\n    elif form.errors:\n        response.flash = \'form has errors\'\n    else:\n        response.flash = \'please fill the form\'\n    logger.info(\'Salgo de topo1\')\n    return dict(form=form)\n\n\ndef form_processing_es_una_base(form):\n    # Comprobamos si nos han dado una base topol\xc3\xb3gica\n    logger.info(\'Entro en form_processing_es_una_base\')\n\n\n    puntos1 = form.vars.points\n    base1 = form.vars.basis\n\n    if not tiene_pinta_de_puntos(puntos1):\n        form.errors.points = \'Does not seems to be a list of points\'\n        return\n    if not tiene_pinta_de_base(base1):\n        form.errors.basis = \'Does not seems to be a list of open sets\'\n        return\n\n    if not es_base(puntos1, base1):\n        form.errors.basis = \'This set is not a topological basis\'\n    else:\n        form.vars.basis = de_lista_a_llaves(base1)\n    logger.info(\'Salgo de form_processing_es_una_base\')\n    return\n\n\ndef topo4():\n    logger.info(\'Entro en topo4\')\n    logger.info(\'Salgo de topo4\')\n    return dict(pagina=HTML(BODY(IMG(_src=URL(\'prueba1\')))))\n\n\ndef prueba1():\n    logger.info(\'Entro en prueba1\')\n    response.headers[\'Content-Type\']=\'image/png\'\n    logger.info(\'Salgo de prueba1\')\n    return my_hasse1(session.points, session.basis)\n\n\n\n\n\n\n\n\n\n# Funciones de web2py. No tocar de momento.\n\ndef user():\n    """\n    exposes:\n    http://..../[app]/default/user/login\n    http://..../[app]/default/user/logout\n    http://..../[app]/default/user/register\n    http://..../[app]/default/user/profile\n    http://..../[app]/default/user/retrieve_password\n    http://..../[app]/default/user/change_password\n    http://..../[app]/default/user/manage_users (requires membership in\n    use @auth.requires_login()\n        @auth.requires_membership(\'group name\')\n        @auth.requires_permission(\'read\',\'table name\',record_id)\n    to decorate functions that need access control\n    """\n    return dict(form=auth())\n\n@cache.action()\ndef download():\n    """\n    allows downloading of uploaded files\n    http://..../[app]/default/download/[filename]\n    """\n    return response.download(request, db)\n\ndef call():\n    """\n    exposes services. for example:\n    http://..../[app]/default/call/jsonrpc\n    decorate with @services.jsonrpc the functions to expose\n    supports xml, json, xmlrpc, jsonrpc, amfrpc, rss, csv\n    """\n    return service()\n\n\n@auth.requires_signature()\ndef data():\n    """\n    http://..../[app]/default/data/tables\n    http://..../[app]/default/data/create/[table]\n    http://..../[app]/default/data/read/[table]/[id]\n    http://..../[app]/default/data/update/[table]/[id]\n    http://..../[app]/default/data/delete/[table]/[id]\n    http://..../[app]/default/data/select/[table]\n    http://..../[app]/default/data/search/[table]\n    but URLs must be signed, i.e. linked with\n      A(\'table\',_href=URL(\'data/tables\',user_signature=True))\n    or with the signed load operator\n      LOAD(\'default\',\'data.load\',args=\'tables\',ajax=True,user_signature=True)\n    """\n    return dict(form=crud())\n\nresponse._vars=response._caller(topo1)\n'
p7
sS'snapshot'
p8
(dp9
S'exception'
p10
(dp11
S'__getslice__'
p12
S"<method-wrapper '__getslice__' of exceptions.SyntaxError object>"
p13
sS'text'
p14
S"'result = [[6,,2,1],[5,2,1,3],[4,1],[3,1],[2,1],[1]]\\n'"
p15
sS'__str__'
p16
S"<method-wrapper '__str__' of exceptions.SyntaxError object>"
p17
sS'__reduce__'
p18
S'<built-in method __reduce__ of exceptions.SyntaxError object>'
p19
sS'__dict__'
p20
S'{}'
p21
sS'__sizeof__'
p22
S'<built-in method __sizeof__ of exceptions.SyntaxError object>'
p23
sS'__init__'
p24
S"<method-wrapper '__init__' of exceptions.SyntaxError object>"
p25
sS'__setattr__'
p26
S"<method-wrapper '__setattr__' of exceptions.SyntaxError object>"
p27
sS'__reduce_ex__'
p28
S'<built-in method __reduce_ex__ of exceptions.SyntaxError object>'
p29
sS'__new__'
p30
S'<built-in method __new__ of type object>'
p31
sS'__format__'
p32
S'<built-in method __format__ of exceptions.SyntaxError object>'
p33
sS'__class__'
p34
S"<type 'exceptions.SyntaxError'>"
p35
sS'filename'
p36
S"'<string>'"
p37
sS'lineno'
p38
S'1'
sS'msg'
p39
S"'invalid syntax'"
p40
sS'__doc__'
p41
S"'Invalid syntax.'"
p42
sS'__getitem__'
p43
S"<method-wrapper '__getitem__' of exceptions.SyntaxError object>"
p44
sS'__setstate__'
p45
S'<built-in method __setstate__ of exceptions.SyntaxError object>'
p46
sS'__getattribute__'
p47
S"<method-wrapper '__getattribute__' of exceptions.SyntaxError object>"
p48
sS'print_file_and_line'
p49
S'None'
p50
sS'args'
p51
S"('invalid syntax', ('<string>', 1, 14, 'result = [[6,,2,1],[5,2,1,3],[4,1],[3,1],[2,1],[1]]\\n'))"
p52
sS'__subclasshook__'
p53
S'<built-in method __subclasshook__ of type object>'
p54
sS'offset'
p55
S'14'
p56
sS'__unicode__'
p57
S'<built-in method __unicode__ of exceptions.SyntaxError object>'
p58
sS'__delattr__'
p59
S"<method-wrapper '__delattr__' of exceptions.SyntaxError object>"
p60
sS'__repr__'
p61
S"<method-wrapper '__repr__' of exceptions.SyntaxError object>"
p62
sS'__hash__'
p63
S"<method-wrapper '__hash__' of exceptions.SyntaxError object>"
p64
ssS'evalue'
p65
S'invalid syntax (<string>, line 1)'
p66
sS'request'
p67
cgluon.html
XML_unpickle
p68
(S'ssX\x00\x00<div><table><tr><td style="font-weight:bold;vertical-align:top;">ajax</td><td style="vertical-align:top;">:</td><td><div>False</div></td></tr><tr><td style="font-weight:bold;vertical-align:top;">application</td><td style="vertical-align:top;">:</td><td><div>init</div></td></tr><tr><td style="font-weight:bold;vertical-align:top;">args</td><td style="vertical-align:top;">:</td><td><div><table></table></div></td></tr><tr><td style="font-weight:bold;vertical-align:top;">cid</td><td style="vertical-align:top;">:</td><td><div>None</div></td></tr><tr><td style="font-weight:bold;vertical-align:top;">client</td><td style="vertical-align:top;">:</td><td><div>127.0.0.1</div></td></tr><tr><td style="font-weight:bold;vertical-align:top;">controller</td><td style="vertical-align:top;">:</td><td><div>hasse</div></td></tr><tr><td style="font-weight:bold;vertical-align:top;">cookies</td><td style="vertical-align:top;">:</td><td><div><table><tr><td style="font-weight:bold;vertical-align:top;">session_id_init</td><td style="vertical-align:top;">:</td><td><div>127.0.0.1-91c76b42-13e5-4d12-9491-1de41a6f22c5<table><tr><td style="font-weight:bold;vertical-align:top;">comment</td><td style="vertical-align:top;">:</td><td><div></div></td></tr><tr><td style="font-weight:bold;vertical-align:top;">domain</td><td style="vertical-align:top;">:</td><td><div></div></td></tr><tr><td style="font-weight:bold;vertical-align:top;">expires</td><td style="vertical-align:top;">:</td><td><div></div></td></tr><tr><td style="font-weight:bold;vertical-align:top;">httponly</td><td style="vertical-align:top;">:</td><td><div></div></td></tr><tr><td style="font-weight:bold;vertical-align:top;">max-age</td><td style="vertical-align:top;">:</td><td><div></div></td></tr><tr><td style="font-weight:bold;vertical-align:top;">path</td><td style="vertical-align:top;">:</td><td><div></div></td></tr><tr><td style="font-weight:bold;vertical-align:top;">secure</td><td style="vertical-align:top;">:</td><td><div></div></td></tr><tr><td style="font-weight:bold;vertical-align:top;">version</td><td style="vertical-align:top;">:</td><td><div></div></td></tr></table></div></td></tr></table></div></td></tr><tr><td style="font-weight:bold;vertical-align:top;">env</td><td style="vertical-align:top;">:</td><td><div><table><tr><td style="font-weight:bold;vertical-align:top;">CONTENT_LENGTH</td><td style="vertical-align:top;">:</td><td><div>526</div></td></tr><tr><td style="font-weight:bold;vertical-align:top;">CONTENT_TYPE</td><td style="vertical-align:top;">:</td><td><div>multipart/form-data; boundary=----WebKitFormBoundary71HDdNZVN7jC7IHg</div></td></tr><tr><td style="font-weight:bold;vertical-align:top;">HTTP_ACCEPT</td><td style="vertical-align:top;">:</td><td><div>text/html,application/xhtml+xml,application/xml;q=0.9,image/webp,*/*;q=0.8</div></td></tr><tr><td style="font-weight:bold;vertical-align:top;">HTTP_ACCEPT_ENCODING</td><td style="vertical-align:top;">:</td><td><div>gzip,deflate,sdch</div></td></tr><tr><td style="font-weight:bold;vertical-align:top;">HTTP_ACCEPT_LANGUAGE</td><td style="vertical-align:top;">:</td><td><div>en-US,en;q=0.8,es;q=0.6</div></td></tr><tr><td style="font-weight:bold;vertical-align:top;">HTTP_CACHE_CONTROL</td><td style="vertical-align:top;">:</td><td><div>max-age=0</div></td></tr><tr><td style="font-weight:bold;vertical-align:top;">HTTP_CONNECTION</td><td style="vertical-align:top;">:</td><td><div>keep-alive</div></td></tr><tr><td style="font-weight:bold;vertical-align:top;">HTTP_CONTENT_LENGTH</td><td style="vertical-align:top;">:</td><td><div>526</div></td></tr><tr><td style="font-weight:bold;vertical-align:top;">HTTP_CONTENT_TYPE</td><td style="vertical-align:top;">:</td><td><div>multipart/form-data; boundary=----WebKitFormBoundary71HDdNZVN7jC7IHg</div></td></tr><tr><td style="font-weight:bold;vertical-align:top;">HTTP_COOKIE</td><td style="vertical-align:top;">:</td><td><div>session_id_init=127.0.0.1-91c76b42-13e5-4d12-9491-1de41a6f22c5</div></td></tr><tr><td style="font-weight:bold;vertical-align:top;">HTTP_HOST</td><td style="vertical-align:top;">:</td><td><div>127.0.0.1:8000</div></td></tr><tr><td style="font-weight:bold;vertical-align:top;">HTTP_ORIGIN</td><td style="vertical-align:top;">:</td><td><div>http://127.0.0.1:8000</div></td></tr><tr><td style="font-weight:bold;vertical-align:top;">HTTP_REFERER</td><td style="vertical-align:top;">:</td><td><div>http://127.0.0.1:8000/init/hasse/topo1</div></td></tr><tr><td style="font-weight:bold;vertical-align:top;">HTTP_USER_AGENT</td><td style="vertical-align:top;">:</td><td><div>Mozilla/5.0 (Macintosh; Intel Mac OS X 10_9_2) AppleWebKit/537.36 (KHTML, like Gecko) Chrome/34.0.1847.131 Safari/537.36</div></td></tr><tr><td style="font-weight:bold;vertical-align:top;">PATH_INFO</td><td style="vertical-align:top;">:</td><td><div>/init/hasse/topo1</div></td></tr><tr><td style="font-weight:bold;vertical-align:top;">QUERY_STRING</td><td style="vertical-align:top;">:</td><td><div></div></td></tr><tr><td style="font-weight:bold;vertical-align:top;">REMOTE_ADDR</td><td style="vertical-align:top;">:</td><td><div>127.0.0.1</div></td></tr><tr><td style="font-weight:bold;vertical-align:top;">REMOTE_PORT</td><td style="vertical-align:top;">:</td><td><div>49940</div></td></tr><tr><td style="font-weight:bold;vertical-align:top;">REQUEST_METHOD</td><td style="vertical-align:top;">:</td><td><div>POST</div></td></tr><tr><td style="font-weight:bold;vertical-align:top;">SCRIPT_NAME</td><td style="vertical-align:top;">:</td><td><div></div></td></tr><tr><td style="font-weight:bold;vertical-align:top;">SERVER_NAME</td><td style="vertical-align:top;">:</td><td><div>Luiss-iMac.local</div></td></tr><tr><td style="font-weight:bold;vertical-align:top;">SERVER_PORT</td><td style="vertical-align:top;">:</td><td><div>8000</div></td></tr><tr><td style="font-weight:bold;vertical-align:top;">SERVER_PROTOCOL</td><td style="vertical-align:top;">:</td><td><div>HTTP/1.1</div></td></tr><tr><td style="font-weight:bold;vertical-align:top;">SERVER_SOFTWARE</td><td style="vertical-align:top;">:</td><td><div>Rocket 1.2.6</div></td></tr><tr><td style="font-weight:bold;vertical-align:top;">app_folders</td><td style="vertical-align:top;">:</td><td><div>set([&#x27;/Dropbox/Dropbox/Datos/Python/Proyectos/topolab12_v2/web2py/applications/init/&#x27;])</div></td></tr><tr><td style="font-weight:bold;vertical-align:top;">applications_parent</td><td style="vertical-align:top;">:</td><td><div>/Dropbox/Dropbox/Datos/Python/Proyectos/topolab12_v2/web2py</div></td></tr><tr><td style="font-weight:bold;vertical-align:top;">cmd_args</td><td style="vertical-align:top;">:</td><td><div><table></table></div></td></tr><tr><td style="font-weight:bold;vertical-align:top;">cmd_options</td><td style="vertical-align:top;">:</td><td><div>&lt;Values at 0x105b9e5a8: {&#x27;verbose&#x27;: False, &#x27;ip&#x27;: &#x27;127.0.0.1&#x27;, &#x27;debuglevel&#x27;: 30, &#x27;with_scheduler&#x27;: False, &#x27;ips&#x27;: [&#x27;192.168.1.56&#x27;, &#x27;fe80::3e07:54ff:fe60:c170%en0&#x27;], &#x27;shutdown_timeout&#x27;: 5, &#x27;taskbar&#x27;: False, &#x27;with_coverage&#x27;: False, &#x27;port&#x27;: 8000, &#x27;maxthreads&#x27;: None, &#x27;softcron&#x27;: False, &#x27;server_name&#x27;: &#x27;Luiss-iMac.local&#x27;, &#x27;bpython&#x27;: False, &#x27;nogui&#x27;: False, &#x27;pid_filename&#x27;: &#x27;httpserver.pid&#x27;, &#x27;extcron&#x27;: False, &#x27;runcron&#x27;: False, &#x27;run_system_tests&#x27;: False, &#x27;test&#x27;: None, &#x27;folder&#x27;: &#x27;/Dropbox/Dropbox/Datos/Python/Proyectos/topolab12_v2/web2py&#x27;, &#x27;config&#x27;: &#x27;&#x27;, &#x27;minthreads&#x27;: None, &#x27;shell&#x27;: None, &#x27;run&#x27;: &#x27;&#x27;, &#x27;log_filename&#x27;: &#x27;httpserver.log&#x27;, &#x27;profiler_dir&#x27;: None, &#x27;args&#x27;: [&#x27;&#x27;], &#x27;socket_timeout&#x27;: 5, &#x27;ssl_ca_certificate&#x27;: None, &#x27;scheduler&#x27;: None, &#x27;interfaces&#x27;: None, &#x27;ssl_private_key&#x27;: &#x27;&#x27;, &#x27;scheduler_groups&#x27;: None, &#x27;password&#x27;: &#x27;&lt;ask&gt;&#x27;, &#x27;request_queue_size&#x27;: 5, &#x27;ssl_certificate&#x27;: &#x27;&#x27;, &#x27;cronjob&#x27;: False, &#x27;numthreads&#x27;: None, &#x27;quiet&#x27;: False, &#x27;import_models&#x27;: False, &#x27;timeout&#x27;: 10, &#x27;plain&#x27;: False, &#x27;nobanner&#x27;: False}&gt;</div></td></tr><tr><td style="font-weight:bold;vertical-align:top;">content_length</td><td style="vertical-align:top;">:</td><td><div>526</div></td></tr><tr><td style="font-weight:bold;vertical-align:top;">content_type</td><td style="vertical-align:top;">:</td><td><div>multipart/form-data; boundary=----WebKitFormBoundary71HDdNZVN7jC7IHg</div></td></tr><tr><td style="font-weight:bold;vertical-align:top;">db_sessions</td><td style="vertical-align:top;">:</td><td><div>set([])</div></td></tr><tr><td style="font-weight:bold;vertical-align:top;">debugging</td><td style="vertical-align:top;">:</td><td><div>False</div></td></tr><tr><td style="font-weight:bold;vertical-align:top;">gluon_parent</td><td style="vertical-align:top;">:</td><td><div>/Dropbox/Dropbox/Datos/Python/Proyectos/topolab12_v2/web2py</div></td></tr><tr><td style="font-weight:bold;vertical-align:top;">http_accept</td><td style="vertical-align:top;">:</td><td><div>text/html,application/xhtml+xml,application/xml;q=0.9,image/webp,*/*;q=0.8</div></td></tr><tr><td style="font-weight:bold;vertical-align:top;">http_accept_encoding</td><td style="vertical-align:top;">:</td><td><div>gzip,deflate,sdch</div></td></tr><tr><td style="font-weight:bold;vertical-align:top;">http_accept_language</td><td style="vertical-align:top;">:</td><td><div>en-US,en;q=0.8,es;q=0.6</div></td></tr><tr><td style="font-weight:bold;vertical-align:top;">http_cache_control</td><td style="vertical-align:top;">:</td><td><div>max-age=0</div></td></tr><tr><td style="font-weight:bold;vertical-align:top;">http_connection</td><td style="vertical-align:top;">:</td><td><div>keep-alive</div></td></tr><tr><td style="font-weight:bold;vertical-align:top;">http_content_length</td><td style="vertical-align:top;">:</td><td><div>526</div></td></tr><tr><td style="font-weight:bold;vertical-align:top;">http_content_type</td><td style="vertical-align:top;">:</td><td><div>multipart/form-data; boundary=----WebKitFormBoundary71HDdNZVN7jC7IHg</div></td></tr><tr><td style="font-weight:bold;vertical-align:top;">http_cookie</td><td style="vertical-align:top;">:</td><td><div>session_id_init=127.0.0.1-91c76b42-13e5-4d12-9491-1de41a6f22c5</div></td></tr><tr><td style="font-weight:bold;vertical-align:top;">http_host</td><td style="vertical-align:top;">:</td><td><div>127.0.0.1:8000</div></td></tr><tr><td style="font-weight:bold;vertical-align:top;">http_origin</td><td style="vertical-align:top;">:</td><td><div>http://127.0.0.1:8000</div></td></tr><tr><td style="font-weight:bold;vertical-align:top;">http_referer</td><td style="vertical-align:top;">:</td><td><div>http://127.0.0.1:8000/init/hasse/topo1</div></td></tr><tr><td style="font-weight:bold;vertical-align:top;">http_user_agent</td><td style="vertical-align:top;">:</td><td><div>Mozilla/5.0 (Macintosh; Intel Mac OS X 10_9_2) AppleWebKit/537.36 (KHTML, like Gecko) Chrome/34.0.1847.131 Safari/537.36</div></td></tr><tr><td style="font-weight:bold;vertical-align:top;">is_jython</td><td style="vertical-align:top;">:</td><td><div>False</div></td></tr><tr><td style="font-weight:bold;vertical-align:top;">is_pypy</td><td style="vertical-align:top;">:</td><td><div>False</div></td></tr><tr><td style="font-weight:bold;vertical-align:top;">is_source</td><td style="vertical-align:top;">:</td><td><div>True</div></td></tr><tr><td style="font-weight:bold;vertical-align:top;">local_hosts</td><td style="vertical-align:top;">:</td><td><div><table><tr><td><div>Luiss-iMac.local</div></td></tr><tr><td><div>fe80::3e07:54ff:fe60:c170%en0</div></td></tr><tr><td><div>::ffff:127.0.0.1</div></td></tr><tr><td><div>::1</div></td></tr><tr><td><div>192.168.1.56</div></td></tr><tr><td><div>127.0.0.1</div></td></tr></table></div></td></tr><tr><td style="font-weight:bold;vertical-align:top;">path_info</td><td style="vertical-align:top;">:</td><td><div>/init/hasse/topo1</div></td></tr><tr><td style="font-weight:bold;vertical-align:top;">query_string</td><td style="vertical-align:top;">:</td><td><div></div></td></tr><tr><td style="font-weight:bold;vertical-align:top;">remote_addr</td><td style="vertical-align:top;">:</td><td><div>127.0.0.1</div></td></tr><tr><td style="font-weight:bold;vertical-align:top;">remote_port</td><td style="vertical-align:top;">:</td><td><div>49940</div></td></tr><tr><td style="font-weight:bold;vertical-align:top;">request_method</td><td style="vertical-align:top;">:</td><td><div>POST</div></td></tr><tr><td style="font-weight:bold;vertical-align:top;">request_uri</td><td style="vertical-align:top;">:</td><td><div>/init/hasse/topo1</div></td></tr><tr><td style="font-weight:bold;vertical-align:top;">script_name</td><td style="vertical-align:top;">:</td><td><div></div></td></tr><tr><td style="font-weight:bold;vertical-align:top;">server_name</td><td style="vertical-align:top;">:</td><td><div>Luiss-iMac.local</div></td></tr><tr><td style="font-weight:bold;vertical-align:top;">server_port</td><td style="vertical-align:top;">:</td><td><div>8000</div></td></tr><tr><td style="font-weight:bold;vertical-align:top;">server_protocol</td><td style="vertical-align:top;">:</td><td><div>HTTP/1.1</div></td></tr><tr><td style="font-weight:bold;vertical-align:top;">server_software</td><td style="vertical-align:top;">:</td><td><div>Rocket 1.2.6</div></td></tr><tr><td style="font-weight:bold;vertical-align:top;">web2py_path</td><td style="vertical-align:top;">:</td><td><div>/Dropbox/Dropbox/Datos/Python/Proyectos/topolab12_v2/web2py</div></td></tr><tr><td style="font-weight:bold;vertical-align:top;">web2py_version</td><td style="vertical-align:top;">:</td><td><div>2.8.2-stable+timestamp.2013.11.28.13.54.07</div></td></tr><tr><td style="font-weight:bold;vertical-align:top;">wsgi.errors</td><td style="vertical-align:top;">:</td><td><div>&lt;open file &#x27;&lt;stderr&gt;&#x27;, mode &#x27;w&#x27; at 0x100285270&gt;</div></td></tr><tr><td style="font-weight:bold;vertical-align:top;">wsgi.file_wrapper</td><td style="vertical-align:top;">:</td><td><div>&lt;class wsgiref.util.FileWrapper at 0x105b56258&gt;</div></td></tr><tr><td style="font-weight:bold;vertical-align:top;">wsgi.input</td><td style="vertical-align:top;">:</td><td><div>&lt;socket._fileobject object at 0x1108a2550&gt;</div></td></tr><tr><td style="font-weight:bold;vertical-align:top;">wsgi.multiprocess</td><td style="vertical-align:top;">:</td><td><div>False</div></td></tr><tr><td style="font-weight:bold;vertical-align:top;">wsgi.multithread</td><td style="vertical-align:top;">:</td><td><div>True</div></td></tr><tr><td style="font-weight:bold;vertical-align:top;">wsgi.run_once</td><td style="vertical-align:top;">:</td><td><div>False</div></td></tr><tr><td style="font-weight:bold;vertical-align:top;">wsgi.url_scheme</td><td style="vertical-align:top;">:</td><td><div>http</div></td></tr><tr><td style="font-weight:bold;vertical-align:top;">wsgi.version</td><td style="vertical-align:top;">:</td><td><div><table><tr><td><div>1</div></td></tr><tr><td><div>0</div></td></tr></table></div></td></tr><tr><td style="font-weight:bold;vertical-align:top;">wsgi_errors</td><td style="vertical-align:top;">:</td><td><div>&lt;open file &#x27;&lt;stderr&gt;&#x27;, mode &#x27;w&#x27; at 0x100285270&gt;</div></td></tr><tr><td style="font-weight:bold;vertical-align:top;">wsgi_file_wrapper</td><td style="vertical-align:top;">:</td><td><div>&lt;class wsgiref.util.FileWrapper at 0x105b56258&gt;</div></td></tr><tr><td style="font-weight:bold;vertical-align:top;">wsgi_input</td><td style="vertical-align:top;">:</td><td><div>&lt;socket._fileobject object at 0x1108a2550&gt;</div></td></tr><tr><td style="font-weight:bold;vertical-align:top;">wsgi_multiprocess</td><td style="vertical-align:top;">:</td><td><div>False</div></td></tr><tr><td style="font-weight:bold;vertical-align:top;">wsgi_multithread</td><td style="vertical-align:top;">:</td><td><div>True</div></td></tr><tr><td style="font-weight:bold;vertical-align:top;">wsgi_run_once</td><td style="vertical-align:top;">:</td><td><div>False</div></td></tr><tr><td style="font-weight:bold;vertical-align:top;">wsgi_url_scheme</td><td style="vertical-align:top;">:</td><td><div>http</div></td></tr><tr><td style="font-weight:bold;vertical-align:top;">wsgi_version</td><td style="vertical-align:top;">:</td><td><div><table><tr><td><div>1</div></td></tr><tr><td><div>0</div></td></tr></table></div></td></tr></table></div></td></tr><tr><td style="font-weight:bold;vertical-align:top;">extension</td><td style="vertical-align:top;">:</td><td><div>html</div></td></tr><tr><td style="font-weight:bold;vertical-align:top;">folder</td><td style="vertical-align:top;">:</td><td><div>/Dropbox/Dropbox/Datos/Python/Proyectos/topolab12_v2/web2py/applications/init/</div></td></tr><tr><td style="font-weight:bold;vertical-align:top;">function</td><td style="vertical-align:top;">:</td><td><div>topo1</div></td></tr><tr><td style="font-weight:bold;vertical-align:top;">global_settings</td><td style="vertical-align:top;">:</td><td><div><table><tr><td style="font-weight:bold;vertical-align:top;">app_folders</td><td style="vertical-align:top;">:</td><td><div>set([&#x27;/Dropbox/Dropbox/Datos/Python/Proyectos/topolab12_v2/web2py/applications/init/&#x27;])</div></td></tr><tr><td style="font-weight:bold;vertical-align:top;">applications_parent</td><td style="vertical-align:top;">:</td><td><div>/Dropbox/Dropbox/Datos/Python/Proyectos/topolab12_v2/web2py</div></td></tr><tr><td style="font-weight:bold;vertical-align:top;">cmd_args</td><td style="vertical-align:top;">:</td><td><div><table></table></div></td></tr><tr><td style="font-weight:bold;vertical-align:top;">cmd_options</td><td style="vertical-align:top;">:</td><td><div>&lt;Values at 0x105b9e5a8: {&#x27;verbose&#x27;: False, &#x27;ip&#x27;: &#x27;127.0.0.1&#x27;, &#x27;debuglevel&#x27;: 30, &#x27;with_scheduler&#x27;: False, &#x27;ips&#x27;: [&#x27;192.168.1.56&#x27;, &#x27;fe80::3e07:54ff:fe60:c170%en0&#x27;], &#x27;shutdown_timeout&#x27;: 5, &#x27;taskbar&#x27;: False, &#x27;with_coverage&#x27;: False, &#x27;port&#x27;: 8000, &#x27;maxthreads&#x27;: None, &#x27;softcron&#x27;: False, &#x27;server_name&#x27;: &#x27;Luiss-iMac.local&#x27;, &#x27;bpython&#x27;: False, &#x27;nogui&#x27;: False, &#x27;pid_filename&#x27;: &#x27;httpserver.pid&#x27;, &#x27;extcron&#x27;: False, &#x27;runcron&#x27;: False, &#x27;run_system_tests&#x27;: False, &#x27;test&#x27;: None, &#x27;folder&#x27;: &#x27;/Dropbox/Dropbox/Datos/Python/Proyectos/topolab12_v2/web2py&#x27;, &#x27;config&#x27;: &#x27;&#x27;, &#x27;minthreads&#x27;: None, &#x27;shell&#x27;: None, &#x27;run&#x27;: &#x27;&#x27;, &#x27;log_filename&#x27;: &#x27;httpserver.log&#x27;, &#x27;profiler_dir&#x27;: None, &#x27;args&#x27;: [&#x27;&#x27;], &#x27;socket_timeout&#x27;: 5, &#x27;ssl_ca_certificate&#x27;: None, &#x27;scheduler&#x27;: None, &#x27;interfaces&#x27;: None, &#x27;ssl_private_key&#x27;: &#x27;&#x27;, &#x27;scheduler_groups&#x27;: None, &#x27;password&#x27;: &#x27;&lt;ask&gt;&#x27;, &#x27;request_queue_size&#x27;: 5, &#x27;ssl_certificate&#x27;: &#x27;&#x27;, &#x27;cronjob&#x27;: False, &#x27;numthreads&#x27;: None, &#x27;quiet&#x27;: False, &#x27;import_models&#x27;: False, &#x27;timeout&#x27;: 10, &#x27;plain&#x27;: False, &#x27;nobanner&#x27;: False}&gt;</div></td></tr><tr><td style="font-weight:bold;vertical-align:top;">db_sessions</td><td style="vertical-align:top;">:</td><td><div>set([])</div></td></tr><tr><td style="font-weight:bold;vertical-align:top;">debugging</td><td style="vertical-align:top;">:</td><td><div>False</div></td></tr><tr><td style="font-weight:bold;vertical-align:top;">gluon_parent</td><td style="vertical-align:top;">:</td><td><div>/Dropbox/Dropbox/Datos/Python/Proyectos/topolab12_v2/web2py</div></td></tr><tr><td style="font-weight:bold;vertical-align:top;">is_jython</td><td style="vertical-align:top;">:</td><td><div>False</div></td></tr><tr><td style="font-weight:bold;vertical-align:top;">is_pypy</td><td style="vertical-align:top;">:</td><td><div>False</div></td></tr><tr><td style="font-weight:bold;vertical-align:top;">is_source</td><td style="vertical-align:top;">:</td><td><div>True</div></td></tr><tr><td style="font-weight:bold;vertical-align:top;">local_hosts</td><td style="vertical-align:top;">:</td><td><div><table><tr><td><div>Luiss-iMac.local</div></td></tr><tr><td><div>fe80::3e07:54ff:fe60:c170%en0</div></td></tr><tr><td><div>::ffff:127.0.0.1</div></td></tr><tr><td><div>::1</div></td></tr><tr><td><div>192.168.1.56</div></td></tr><tr><td><div>127.0.0.1</div></td></tr></table></div></td></tr><tr><td style="font-weight:bold;vertical-align:top;">web2py_version</td><td style="vertical-align:top;">:</td><td><div>2.8.2-stable+timestamp.2013.11.28.13.54.07</div></td></tr></table></div></td></tr><tr><td style="font-weight:bold;vertical-align:top;">is_https</td><td style="vertical-align:top;">:</td><td><div>False</div></td></tr><tr><td style="font-weight:bold;vertical-align:top;">is_local</td><td style="vertical-align:top;">:</td><td><div>True</div></td></tr><tr><td style="font-weight:bold;vertical-align:top;">is_restful</td><td style="vertical-align:top;">:</td><td><div>False</div></td></tr><tr><td style="font-weight:bold;vertical-align:top;">now</td><td style="vertical-align:top;">:</td><td><div>datetime.datetime(2014, 5, 3, 18, 15, 1, 289272)</div></td></tr><tr><td style="font-weight:bold;vertical-align:top;">raw_args</td><td style="vertical-align:top;">:</td><td><div></div></td></tr><tr><td style="font-weight:bold;vertical-align:top;">raw_extension</td><td style="vertical-align:top;">:</td><td><div>None</div></td></tr><tr><td style="font-weight:bold;vertical-align:top;">url</td><td style="vertical-align:top;">:</td><td><div>/init/hasse/topo1</div></td></tr><tr><td style="font-weight:bold;vertical-align:top;">utcnow</td><td style="vertical-align:top;">:</td><td><div>datetime.datetime(2014, 5, 3, 16, 15, 1, 289279)</div></td></tr><tr><td style="font-weight:bold;vertical-align:top;">uuid</td><td style="vertical-align:top;">:</td><td><div>init/127.0.0.1.2014-05-03.18-15-01.9c9a783e-353d-42a2-9a86-22cf8c6504d3</div></td></tr><tr><td style="font-weight:bold;vertical-align:top;">wsgi</td><td style="vertical-align:top;">:</td><td><div>&lt;gluon.main.LazyWSGI object at 0x110896950&gt;</div></td></tr></table></div>'
tRp69
sS'frames'
p70
(lp71
(dp72
S'file'
p73
S'/Dropbox/Dropbox/Datos/Python/Proyectos/topolab12_v2/web2py/gluon/restricted.py'
p74
sS'dump'
p75
(dp76
S'environment'
p77
S"{'A': <class 'gluon.html.A'>, 'ANY_OF': <class 'gluon.validators.ANY_OF'>, 'Auth': <class 'gluon.tools.Auth'>, 'B': <class 'gluon.html.B'>, 'BEAUTIFY': <class 'gluon.html.BEAUTIFY'>, 'BODY': <class 'gluon.html.BODY'>, 'BR': <class 'gluon.html.BR'>, 'BUTTON': <class 'gluon.html.BUTTON'>, 'CAT': <class 'gluon.html.CAT'>, 'CENTER': <class 'gluon.html.CENTER'>, ...}"
p78
sS'ccode'
p79
S'<code object <module> at 0x1108bc5b0, file "/Dro...applications/init/controllers/hasse.py", line 15>'
p80
ssS'lnum'
p81
I217
sS'lines'
p82
(dp83
I212
S'    try:'
p84
sI213
S'        if isinstance(code, types.CodeType):'
p85
sI214
S'            ccode = code'
p86
sI215
S'        else:'
p87
sI216
S'            ccode = compile2(code, layer)'
p88
sI217
S'        exec ccode in environment'
p89
sI218
S'    except HTTP:'
p90
sI219
S'        raise'
p91
sI220
S'    except RestrictedError:'
p92
sI221
S'        # do not encapsulate (obfuscate) the original RestrictedError'
p93
ssS'call'
p94
S"(code='# -*- coding: utf-8 -*-\\n# this file is released ...=crud())\\n\\nresponse._vars=response._caller(topo1)\\n', environment={'A': <class 'gluon.html.A'>, 'ANY_OF': <class 'gluon.validators.ANY_OF'>, 'Auth': <class 'gluon.tools.Auth'>, 'B': <class 'gluon.html.B'>, 'BEAUTIFY': <class 'gluon.html.BEAUTIFY'>, 'BODY': <class 'gluon.html.BODY'>, 'BR': <class 'gluon.html.BR'>, 'BUTTON': <class 'gluon.html.BUTTON'>, 'CAT': <class 'gluon.html.CAT'>, 'CENTER': <class 'gluon.html.CENTER'>, ...}, layer='/Dropbox/Dropbox/Datos/Python/Proyectos/topolab12_v2/web2py/applications/init/controllers/hasse.py')"
p95
sS'func'
p96
S'restricted'
p97
sa(dp98
g73
S'/Dropbox/Dropbox/Datos/Python/Proyectos/topolab12_v2/web2py/applications/init/controllers/hasse.py'
p99
sg75
(dp100
sg81
I145
sg82
(dp101
I134
S'    http://..../[app]/default/data/update/[table]/[id]'
p102
sI135
S'    http://..../[app]/default/data/delete/[table]/[id]'
p103
sI136
S'    http://..../[app]/default/data/select/[table]'
p104
sI137
S'    http://..../[app]/default/data/search/[table]'
p105
sI138
S'    but URLs must be signed, i.e. linked with'
p106
sI139
S"      A('table',_href=URL('data/tables',user_signature=True))"
p107
sI140
S'    or with the signed load operator'
p108
sI141
S"      LOAD('default','data.load',args='tables',ajax=True,user_signature=True)"
p109
sI142
S'    """'
p110
sI143
S'    return dict(form=crud())'
p111
ssg94
S'()'
p112
sg96
S'<module>'
p113
sa(dp114
g73
S'/Dropbox/Dropbox/Datos/Python/Proyectos/topolab12_v2/web2py/gluon/globals.py'
p115
sg75
(dp116
S'self'
p117
S'undefined'
p118
sS'f'
S'<function topo1>'
p119
ssg81
I372
sg82
(dp120
I367
S'        self.menu = []             # used by the default view layout'
p121
sI368
S'        self.files = []            # used by web2py_ajax.html'
p122
sI369
S'        self.generic_patterns = []  # patterns to allow generic views'
p123
sI370
S"        self.delimiters = ('{{', '}}')"
p124
sI371
S'        self._vars = None'
p125
sI372
S'        self._caller = lambda f: f()'
p126
sI373
S'        self._view_environment = None'
p127
sI374
S'        self._custom_commit = None'
p128
sI375
S'        self._custom_rollback = None'
p129
sI376
S''
ssg94
S'(f=<function topo1>)'
p130
sg96
S'<lambda>'
p131
sa(dp132
g73
S'/Dropbox/Dropbox/Datos/Python/Proyectos/topolab12_v2/web2py/applications/init/controllers/hasse.py'
p133
sg75
(dp134
S'form.process'
p135
S'<bound method SQLFORM.process of <gluon.sqlhtml.SQLFORM object>>'
p136
sS').accepted'
p137
g118
sS'onvalidation'
p138
g118
sS'form'
p139
S'<gluon.sqlhtml.SQLFORM object>'
p140
sS'global form_processing_es_una_base'
p141
S'<function form_processing_es_una_base>'
p142
ssg81
I35
sg82
(dp143
I32
S'    form = SQLFORM.factory('
p144
sI33
S"        Field('points', requires=IS_NOT_EMPTY()),"
p145
sI34
S"        Field('basis', requires=IS_NOT_EMPTY()))"
p146
sI35
S'    if form.process(onvalidation=form_processing_es_una_base).accepted:'
p147
sI36
S"        response.flash = 'form accepted'"
p148
sI37
S'        session.points = form.vars.points'
p149
sI38
S'        session.basis = form.vars.basis'
p150
sI39
S"        redirect(URL('topo4'))"
p151
sI30
S''
sI31
S''
ssg94
S'()'
p152
sg96
S'topo1'
p153
sa(dp154
g73
S'/Dropbox/Dropbox/Datos/Python/Proyectos/topolab12_v2/web2py/gluon/html.py'
p155
sg75
(dp156
S'self'
p157
S'<gluon.sqlhtml.SQLFORM object>'
p158
sS'self.validate'
p159
S'<bound method SQLFORM.validate of <gluon.sqlhtml.SQLFORM object>>'
p160
sS'kwargs'
p161
S"{'dbio': True, 'onvalidation': <function form_processing_es_una_base>}"
p162
ssg81
I2215
sg82
(dp163
I2210
S'        def action():'
p164
sI2211
S'            return dict(form=SQLFORM(db.table).process(onsuccess=my_callback)'
p165
sI2212
S'        """'
p166
sI2213
S"        kwargs['dbio'] = kwargs.get('dbio', True)"
p167
sI2214
S'                                    # necessary for SQLHTML forms'
p168
sI2215
S'        self.validate(**kwargs)'
p169
sI2216
S'        return self'
p170
sI2217
S''
sI2218
S'    REDIRECT_JS = "window.location=\'%s\';return false"'
p171
sI2219
S''
ssg94
S"(self=<gluon.sqlhtml.SQLFORM object>, **kwargs={'dbio': True, 'onvalidation': <function form_processing_es_una_base>})"
p172
sg96
S'process'
p173
sa(dp174
g73
S'/Dropbox/Dropbox/Datos/Python/Proyectos/topolab12_v2/web2py/gluon/html.py'
p175
sg75
(dp176
S'self'
p177
S'<gluon.sqlhtml.SQLFORM object>'
p178
sS'self.accepts'
p179
S'<bound method SQLFORM.accepts of <gluon.sqlhtml.SQLFORM object>>'
p180
sS'kwargs'
p181
S"{'dbio': True, 'onvalidation': <function form_processing_es_una_base>, 'request_vars': <Storage {'_formkey': '354c1fcf-1a4c-4076-b7d3-2...': '[[6,,2,1],[5,2,1,3],[4,1],[3,1],[2,1],[1]]'}>, 'session': <Storage {'_formkey[no_table/create]': []}>}"
p182
ssg81
I2154
sg82
(dp183
I2149
S"        for key in ('message_onsuccess', 'message_onfailure', 'onsuccess',"
p184
sI2150
S"                    'onfailure', 'next', 'message_onchange', 'onchange'):"
p185
sI2151
S'            if key in kwargs:'
p186
sI2152
S'                del kwargs[key]'
p187
sI2153
S''
sI2154
S'        if self.accepts(**kwargs):'
p188
sI2155
S"            if onsuccess == 'flash':"
p189
sI2156
S'                if next:'
p190
sI2157
S'                    current.session.flash = message_onsuccess'
p191
sI2158
S'                else:'
p192
ssg94
S"(self=<gluon.sqlhtml.SQLFORM object>, **kwargs={'dbio': True, 'onvalidation': <function form_processing_es_una_base>, 'request_vars': <Storage {'_formkey': '354c1fcf-1a4c-4076-b7d3-2...': '[[6,,2,1],[5,2,1,3],[4,1],[3,1],[2,1],[1]]'}>, 'session': <Storage {'_formkey[no_table/create]': []}>})"
p193
sg96
S'validate'
p194
sa(dp195
g73
S'/Dropbox/Dropbox/Datos/Python/Proyectos/topolab12_v2/web2py/gluon/sqlhtml.py'
p196
sg75
(dp197
S'kwargs'
p198
g21
ssg81
I1375
sg82
(dp199
I1376
S'        )'
p200
sI1377
S''
sI1378
S'        self.deleted = \\'
p201
sI1379
S'            request_vars.get(self.FIELDNAME_REQUEST_DELETE, False)'
p202
sI1370
S'            session,'
p203
sI1371
S'            formname,'
p204
sI1372
S'            keepvalues,'
p205
sI1373
S'            onvalidation,'
p206
sI1374
S'            hideerror=hideerror,'
p207
sI1375
S'            **kwargs'
p208
ssg94
S"(self=<gluon.sqlhtml.SQLFORM object>, request_vars=<Storage {'_formkey': '354c1fcf-1a4c-4076-b7d3-2...': '[[6,,2,1],[5,2,1,3],[4,1],[3,1],[2,1],[1]]'}>, session=<Storage {'_formkey[no_table/create]': []}>, formname='no_table/create', keepvalues=False, onvalidation=<function form_processing_es_una_base>, dbio=True, hideerror=False, detect_record_change=False, **kwargs={})"
p209
sg96
S'accepts'
p210
sa(dp211
g73
S'/Dropbox/Dropbox/Datos/Python/Proyectos/topolab12_v2/web2py/gluon/html.py'
p212
sg75
(dp213
S'global call_as_list'
p214
S'<function call_as_list>'
p215
sS'self'
p216
S'<gluon.sqlhtml.SQLFORM object>'
p217
sS'onvalidation'
p218
S'<function form_processing_es_una_base>'
p219
ssg81
I2055
sg82
(dp220
I2050
S'                if changed:'
p221
sI2051
S'                    if onchange and self.record_changed and \\'
p222
sI2052
S'                            self.detect_record_change:'
p223
sI2053
S'                        call_as_list(onchange,self)'
p224
sI2054
S'            elif status:'
p225
sI2055
S'                call_as_list(onvalidation, self)'
p226
sI2056
S'        if self.errors:'
p227
sI2057
S'            status = False'
p228
sI2058
S'        if not session is None:'
p229
sI2059
S"            if hasattr(self, 'record_hash'):"
p230
ssg94
S"(self=<gluon.sqlhtml.SQLFORM object>, request_vars=<Storage {'_formkey': '354c1fcf-1a4c-4076-b7d3-2...': '[[6,,2,1],[5,2,1,3],[4,1],[3,1],[2,1],[1]]'}>, session=<Storage {'_formkey[no_table/create]': []}>, formname='no_table/create', keepvalues=False, onvalidation=<function form_processing_es_una_base>, hideerror=False, **kwargs={})"
p231
sg96
g210
sa(dp232
g73
S'/Dropbox/Dropbox/Datos/Python/Proyectos/topolab12_v2/web2py/gluon/html.py'
p233
sg75
(dp234
S'a'
S'(<gluon.sqlhtml.SQLFORM object>,)'
p235
sS'item'
p236
S'<function form_processing_es_una_base>'
p237
sS'b'
g21
ssg81
I136
sg82
(dp238
I131
S''
sI132
S'def call_as_list(f,*a,**b):'
p239
sI133
S'    if not isinstance(f, (list,tuple)):'
p240
sI134
S'        f = [f]'
p241
sI135
S'    for item in f:'
p242
sI136
S'        item(*a,**b)'
p243
sI137
S''
sI138
S"def truncate_string(text, length, dots='...'):"
p244
sI139
S"    text = text.decode('utf-8')"
p245
sI140
S'    if len(text) > length:'
p246
ssg94
S'(f=[<function form_processing_es_una_base>], *a=(<gluon.sqlhtml.SQLFORM object>,), **b={})'
p247
sg96
S'call_as_list'
p248
sa(dp249
g73
S'/Dropbox/Dropbox/Datos/Python/Proyectos/topolab12_v2/web2py/applications/init/controllers/hasse.py'
p250
sg75
(dp251
S'puntos1'
p252
S"'[1,2,3,4,5,6]'"
p253
sS'global es_base'
p254
S'<function es_base>'
p255
sS'base1'
p256
S"'[[6,,2,1],[5,2,1,3],[4,1],[3,1],[2,1],[1]]'"
p257
ssg81
I63
sg82
(dp258
I64
S"        form.errors.basis = 'This set is not a topological basis'"
p259
sI65
S'    else:'
p260
sI66
S'        form.vars.basis = de_lista_a_llaves(base1)'
p261
sI67
S"    logger.info('Salgo de form_processing_es_una_base')"
p262
sI58
S'        return'
p263
sI59
S'    if not tiene_pinta_de_base(base1):'
p264
sI60
S"        form.errors.basis = 'Does not seems to be a list of open sets'"
p265
sI61
S'        return'
p266
sI62
S''
sI63
S'    if not es_base(puntos1, base1):'
p267
ssg94
S'(form=<gluon.sqlhtml.SQLFORM object>)'
p268
sg96
S'form_processing_es_una_base'
p269
sa(dp270
g73
S'/Dropbox/Dropbox/Datos/Python/Proyectos/topolab12_v2/web2py/applications/init/modules/modulo_math.py'
p271
sg75
(dp272
S'global de_corchetes_a_llaves'
p273
S'<function de_corchetes_a_llaves>'
p274
sS'base'
p275
S"'[[6,,2,1],[5,2,1,3],[4,1],[3,1],[2,1],[1]]'"
p276
sS'global de_llaves_a_lista'
p277
S'<function de_llaves_a_lista>'
p278
ssg81
I729
sg82
(dp279
I724
S'    Adams, Franzosa pag. 29'
p280
sI725
S"    '''"
p281
sI726
S'    if isinstance(puntos, str):'
p282
sI727
S'        puntos = de_llaves_a_lista(de_corchetes_a_llaves(puntos))'
p283
sI728
S'    if isinstance(base, str):'
p284
sI729
S'        base = de_llaves_a_lista(de_corchetes_a_llaves(base))'
p285
sI730
S'    # Vamos con (i)'
p286
sI731
S''
sI732
S''
sI733
S'    resultado = True'
p287
ssg94
S"(puntos=[1, 2, 3, 4, 5, 6], base='[[6,,2,1],[5,2,1,3],[4,1],[3,1],[2,1],[1]]')"
p288
sg96
S'es_base'
p289
sa(dp290
g73
S'/Dropbox/Dropbox/Datos/Python/Proyectos/topolab12_v2/web2py/applications/init/modules/modulo_math.py'
p291
sg75
(dp292
S'resultado'
p293
S"'[[6,,2,1],[5,2,1,3],[4,1],[3,1],[2,1],[1]]'"
p294
ssg81
I775
sg82
(dp295
I770
S''
sI771
S''
sI772
S'def de_llaves_a_lista(ristra):'
p296
sI773
S"    resultado = ristra.replace('{', '[')"
p297
sI774
S"    resultado = resultado.replace('}', ']')"
p298
sI775
S"    exec ('result = ' + resultado)"
p299
sI776
S'    return result'
p300
sI777
S''
sI778
S''
sI779
S'def de_lista_a_llaves(lista):'
p301
ssg94
S"(ristra='{{6,,2,1},{5,2,1,3},{4,1},{3,1},{2,1},{1}}')"
p302
sg96
S'de_llaves_a_lista'
p303
sasS'pyver'
p304
S'Python 2.7.3: /Library/Frameworks/Python.framework/Versions/2.7/Resources/Python.app/Contents/MacOS/Python (prefix: /Library/Frameworks/Python.framework/Versions/2.7)'
p305
sS'session'
p306
g68
(S's\x1a\x00\x00\x00<div><table></table></div>'
tRp307
sS'etype'
p308
S"<type 'exceptions.SyntaxError'>"
p309
sS'date'
p310
S'Sat May  3 18:15:01 2014'
p311
sS'response'
p312
g68
(S's\x961\x00\x00<div><table><tr><td style="font-weight:bold;vertical-align:top;">body</td><td style="vertical-align:top;">:</td><td><div>&lt;cStringIO.StringO object at 0x110898d88&gt;</div></td></tr><tr><td style="font-weight:bold;vertical-align:top;">cookies</td><td style="vertical-align:top;">:</td><td><div><table><tr><td style="font-weight:bold;vertical-align:top;">session_id_init</td><td style="vertical-align:top;">:</td><td><div>127.0.0.1-91c76b42-13e5-4d12-9491-1de41a6f22c5<table><tr><td style="font-weight:bold;vertical-align:top;">comment</td><td style="vertical-align:top;">:</td><td><div></div></td></tr><tr><td style="font-weight:bold;vertical-align:top;">domain</td><td style="vertical-align:top;">:</td><td><div></div></td></tr><tr><td style="font-weight:bold;vertical-align:top;">expires</td><td style="vertical-align:top;">:</td><td><div></div></td></tr><tr><td style="font-weight:bold;vertical-align:top;">httponly</td><td style="vertical-align:top;">:</td><td><div></div></td></tr><tr><td style="font-weight:bold;vertical-align:top;">max-age</td><td style="vertical-align:top;">:</td><td><div></div></td></tr><tr><td style="font-weight:bold;vertical-align:top;">path</td><td style="vertical-align:top;">:</td><td><div>/</div></td></tr><tr><td style="font-weight:bold;vertical-align:top;">secure</td><td style="vertical-align:top;">:</td><td><div></div></td></tr><tr><td style="font-weight:bold;vertical-align:top;">version</td><td style="vertical-align:top;">:</td><td><div></div></td></tr></table></div></td></tr></table></div></td></tr><tr><td style="font-weight:bold;vertical-align:top;">delimiters</td><td style="vertical-align:top;">:</td><td><div><table><tr><td><div>{{</div></td></tr><tr><td><div>}}</div></td></tr></table></div></td></tr><tr><td style="font-weight:bold;vertical-align:top;">files</td><td style="vertical-align:top;">:</td><td><div><table></table></div></td></tr><tr><td style="font-weight:bold;vertical-align:top;">flash</td><td style="vertical-align:top;">:</td><td><div></div></td></tr><tr><td style="font-weight:bold;vertical-align:top;">generic_patterns</td><td style="vertical-align:top;">:</td><td><div><table><tr><td><div>*</div></td></tr></table></div></td></tr><tr><td style="font-weight:bold;vertical-align:top;">google_analytics_id</td><td style="vertical-align:top;">:</td><td><div>None</div></td></tr><tr><td style="font-weight:bold;vertical-align:top;">headers</td><td style="vertical-align:top;">:</td><td><div><table><tr><td style="font-weight:bold;vertical-align:top;">X-Powered-By</td><td style="vertical-align:top;">:</td><td><div>web2py</div></td></tr></table></div></td></tr><tr><td style="font-weight:bold;vertical-align:top;">logo</td><td style="vertical-align:top;">:</td><td><div><a class="brand" data-w2p_disable_with="default" href="http://www.web2py.com/"><b>web<span>2</span>py</b>&trade;&nbsp;</a></div></td></tr><tr><td style="font-weight:bold;vertical-align:top;">menu</td><td style="vertical-align:top;">:</td><td><div><table><tr><td><div><table><tr><td><div>Home</div></td></tr><tr><td><div>False</div></td></tr><tr><td><div>/init/default/index</div></td></tr><tr><td><div><table></table></div></td></tr></table></div></td></tr><tr><td><div><table><tr><td><div><span class="highlighted">web2py</span></div></td></tr><tr><td><div>False</div></td></tr><tr><td><div>http://web2py.com</div></td></tr><tr><td><div><table><tr><td><div><table><tr><td><div>My Sites</div></td></tr><tr><td><div>False</div></td></tr><tr><td><div>/admin/default/site</div></td></tr></table></div></td></tr><tr><td><div><table><tr><td><div>This App</div></td></tr><tr><td><div>False</div></td></tr><tr><td><div>/admin/default/design/init</div></td></tr><tr><td><div>[(&lt;lazyT &#x27;Controller&#x27;&gt;, False, &#x27;/admin/default/edit/init/controllers/hasse.py&#x27;), (&lt;lazyT &#x27;View&#x27;&gt;, False, &#x27;/admin/default/edit/init/views/hasse/topo1.html&#x27;), (&lt;lazyT &#x27;Layout&#x27;&gt;, False, &#x27;/admin/default/edit/init/views/layout.html&#x27;), (&lt;lazyT &#x27;Stylesheet&#x27;&gt;, False, &#x27;/admin/default/edit/init/static/css/web2py.css&#x27;), (&lt;lazyT &#x27;DB Model&#x27;&gt;, False, &#x27;/admin/default/edit/init/models/db.py&#x27;), (&lt;lazyT &#x27;Menu Model&#x27;&gt;, False, &#x27;/admin/default/edit/init/models/menu.py&#x27;), (&lt;lazyT &#x27;Database&#x27;&gt;, False, &#x27;/init/appadmin/index&#x27;), (&lt;lazyT &#x27;Errors&#x27;&gt;, False, &#x27;/admin/default/errors/init&#x27;), (&lt;lazyT &#x27;About&#x27;&gt;, False, &#x27;/admin/default/about/init&#x27;)]</div></td></tr></table></div></td></tr><tr><td><div><table><tr><td><div>web2py.com</div></td></tr><tr><td><div>False</div></td></tr><tr><td><div>http://www.web2py.com</div></td></tr><tr><td><div>[(&lt;lazyT &#x27;Download&#x27;&gt;, False, &#x27;http://www.web2py.com/examples/default/download&#x27;), (&lt;lazyT &#x27;Support&#x27;&gt;, False, &#x27;http://www.web2py.com/examples/default/support&#x27;), (&lt;lazyT &#x27;Demo&#x27;&gt;, False, &#x27;http://web2py.com/demo_admin&#x27;), (&lt;lazyT &#x27;Quick Examples&#x27;&gt;, False, &#x27;http://web2py.com/examples/default/examples&#x27;), (&lt;lazyT &#x27;FAQ&#x27;&gt;, False, &#x27;http://web2py.com/AlterEgo&#x27;), (&lt;lazyT &#x27;Videos&#x27;&gt;, False, &#x27;http://www.web2py.com/examples/default/videos/&#x27;), (&lt;lazyT &#x27;Free Applications&#x27;&gt;, False, &#x27;http://web2py.com/appliances&#x27;), (&lt;lazyT &#x27;Plugins&#x27;&gt;, False, &#x27;http://web2py.com/plugins&#x27;), (&lt;lazyT &#x27;Layouts&#x27;&gt;, False, &#x27;http://web2py.com/layouts&#x27;), (&lt;lazyT &#x27;Recipes&#x27;&gt;, False, &#x27;http://web2pyslices.com/&#x27;), (&lt;lazyT &#x27;Semantic&#x27;&gt;, False, &#x27;http://web2py.com/semantic&#x27;)]</div></td></tr></table></div></td></tr><tr><td><div><table><tr><td><div>Documentation</div></td></tr><tr><td><div>False</div></td></tr><tr><td><div>http://www.web2py.com/book</div></td></tr><tr><td><div>[(&lt;lazyT &#x27;Preface&#x27;&gt;, False, &#x27;http://www.web2py.com/book/default/chapter/00&#x27;), (&lt;lazyT &#x27;Introduction&#x27;&gt;, False, &#x27;http://www.web2py.com/book/default/chapter/01&#x27;), (&lt;lazyT &#x27;Python&#x27;&gt;, False, &#x27;http://www.web2py.com/book/default/chapter/02&#x27;), (&lt;lazyT &#x27;Overview&#x27;&gt;, False, &#x27;http://www.web2py.com/book/default/chapter/03&#x27;), (&lt;lazyT &#x27;The Core&#x27;&gt;, False, &#x27;http://www.web2py.com/book/default/chapter/04&#x27;), (&lt;lazyT &#x27;The Views&#x27;&gt;, False, &#x27;http://www.web2py.com/book/default/chapter/05&#x27;), (&lt;lazyT &#x27;Database&#x27;&gt;, False, &#x27;http://www.web2py.com/book/default/chapter/06&#x27;), (&lt;lazyT &#x27;Forms and Validators&#x27;&gt;, False, &#x27;http://www.web2py.com/book/default/chapter/07&#x27;), (&lt;lazyT &#x27;Email and SMS&#x27;&gt;, False, &#x27;http://www.web2py.com/book/default/chapter/08&#x27;), (&lt;lazyT &#x27;Access Control&#x27;&gt;, False, &#x27;http://www.web2py.com/book/default/chapter/09&#x27;), (&lt;lazyT &#x27;Services&#x27;&gt;, False, &#x27;http://www.web2py.com/book/default/chapter/10&#x27;), (&lt;lazyT &#x27;Ajax Recipes&#x27;&gt;, False, &#x27;http://www.web2py.com/book/default/chapter/11&#x27;), (&lt;lazyT &#x27;Components and Plugins&#x27;&gt;, False, &#x27;http://www.web2py.com/book/default/chapter/12&#x27;), (&lt;lazyT &#x27;Deployment Recipes&#x27;&gt;, False, &#x27;http://www.web2py.com/book/default/chapter/13&#x27;), (&lt;lazyT &#x27;Other Recipes&#x27;&gt;, False, &#x27;http://www.web2py.com/book/default/chapter/14&#x27;), (&lt;lazyT &#x27;Buy this book&#x27;&gt;, False, &#x27;http://stores.lulu.com/web2py&#x27;)]</div></td></tr></table></div></td></tr><tr><td><div><table><tr><td><div>Community</div></td></tr><tr><td><div>False</div></td></tr><tr><td><div>None</div></td></tr><tr><td><div>[(&lt;lazyT &#x27;Groups&#x27;&gt;, False, &#x27;http://www.web2py.com/examples/default/usergroups&#x27;), (&lt;lazyT &#x27;Twitter&#x27;&gt;, False, &#x27;http://twitter.com/web2py&#x27;), (&lt;lazyT &#x27;Live Chat&#x27;&gt;, False, &#x27;http://webchat.freenode.net/?channels=web2py&#x27;)]</div></td></tr></table></div></td></tr><tr><td><div><table><tr><td><div>Plugins</div></td></tr><tr><td><div>False</div></td></tr><tr><td><div>None</div></td></tr><tr><td><div>[(&#x27;plugin_wiki&#x27;, False, &#x27;http://web2py.com/examples/default/download&#x27;), (&lt;lazyT &#x27;Other Plugins&#x27;&gt;, False, &#x27;http://web2py.com/plugins&#x27;), (&lt;lazyT &#x27;Layout Plugins&#x27;&gt;, False, &#x27;http://web2py.com/layouts&#x27;)]</div></td></tr></table></div></td></tr></table></div></td></tr></table></div></td></tr></table></div></td></tr><tr><td style="font-weight:bold;vertical-align:top;">meta</td><td style="vertical-align:top;">:</td><td><div><table><tr><td style="font-weight:bold;vertical-align:top;">author</td><td style="vertical-align:top;">:</td><td><div>Your Name &lt;you@example.com&gt;</div></td></tr><tr><td style="font-weight:bold;vertical-align:top;">generator</td><td style="vertical-align:top;">:</td><td><div>Web2py Web Framework</div></td></tr><tr><td style="font-weight:bold;vertical-align:top;">keywords</td><td style="vertical-align:top;">:</td><td><div>web2py, python, framework</div></td></tr></table></div></td></tr><tr><td style="font-weight:bold;vertical-align:top;">models_to_run</td><td style="vertical-align:top;">:</td><td><div><table><tr><td><div>^\\w+\\.py$</div></td></tr><tr><td><div>^hasse/\\w+\\.py$</div></td></tr><tr><td><div>^hasse/topo1/\\w+\\.py$</div></td></tr></table></div></td></tr><tr><td style="font-weight:bold;vertical-align:top;">postprocessing</td><td style="vertical-align:top;">:</td><td><div><table></table></div></td></tr><tr><td style="font-weight:bold;vertical-align:top;">session_client</td><td style="vertical-align:top;">:</td><td><div>127.0.0.1</div></td></tr><tr><td style="font-weight:bold;vertical-align:top;">session_cookie_compression_level</td><td style="vertical-align:top;">:</td><td><div>None</div></td></tr><tr><td style="font-weight:bold;vertical-align:top;">session_cookie_expires</td><td style="vertical-align:top;">:</td><td><div>None</div></td></tr><tr><td style="font-weight:bold;vertical-align:top;">session_cookie_key</td><td style="vertical-align:top;">:</td><td><div>None</div></td></tr><tr><td style="font-weight:bold;vertical-align:top;">session_data_name</td><td style="vertical-align:top;">:</td><td><div>session_data_init</div></td></tr><tr><td style="font-weight:bold;vertical-align:top;">session_file</td><td style="vertical-align:top;">:</td><td><div>&lt;open file &#x27;/Dropbox/Dropbox/Datos/Python/Proyectos/topolab12_v2/web2py/applications/init/sessions/127.0.0.1-91c76b42-13e5-4d12-9491-1de41a6f22c5&#x27;, mode &#x27;rb+&#x27; at 0x11088bc00&gt;</div></td></tr><tr><td style="font-weight:bold;vertical-align:top;">session_filename</td><td style="vertical-align:top;">:</td><td><div>/Dropbox/Dropbox/Datos/Python/Proyectos/topolab12_v2/web2py/applications/init/sessions/127.0.0.1-91c76b42-13e5-4d12-9491-1de41a6f22c5</div></td></tr><tr><td style="font-weight:bold;vertical-align:top;">session_hash</td><td style="vertical-align:top;">:</td><td><div>1f180c8c7b7ab1d92b5f4bc13b213bbd</div></td></tr><tr><td style="font-weight:bold;vertical-align:top;">session_id</td><td style="vertical-align:top;">:</td><td><div>127.0.0.1-91c76b42-13e5-4d12-9491-1de41a6f22c5</div></td></tr><tr><td style="font-weight:bold;vertical-align:top;">session_id_name</td><td style="vertical-align:top;">:</td><td><div>session_id_init</div></td></tr><tr><td style="font-weight:bold;vertical-align:top;">session_locked</td><td style="vertical-align:top;">:</td><td><div>True</div></td></tr><tr><td style="font-weight:bold;vertical-align:top;">session_masterapp</td><td style="vertical-align:top;">:</td><td><div>init</div></td></tr><tr><td style="font-weight:bold;vertical-align:top;">session_new</td><td style="vertical-align:top;">:</td><td><div>False</div></td></tr><tr><td style="font-weight:bold;vertical-align:top;">session_storage_type</td><td style="vertical-align:top;">:</td><td><div>file</div></td></tr><tr><td style="font-weight:bold;vertical-align:top;">status</td><td style="vertical-align:top;">:</td><td><div>200</div></td></tr><tr><td style="font-weight:bold;vertical-align:top;">subtitle</td><td style="vertical-align:top;">:</td><td><div></div></td></tr><tr><td style="font-weight:bold;vertical-align:top;">title</td><td style="vertical-align:top;">:</td><td><div>Init</div></td></tr><tr><td style="font-weight:bold;vertical-align:top;">view</td><td style="vertical-align:top;">:</td><td><div>hasse/topo1.html</div></td></tr></table></div>'
tRp313
sS'locals'
p314
(dp315
S'resultado'
p316
S"'[[6,,2,1],[5,2,1,3],[4,1],[3,1],[2,1],[1]]'"
p317
sS'ristra'
p318
S"'{{6,,2,1},{5,2,1,3},{4,1},{3,1},{2,1},{1}}'"
p319
sssS'traceback'
p320
S'Traceback (most recent call last):\n  File "/Dropbox/Dropbox/Datos/Python/Proyectos/topolab12_v2/web2py/gluon/restricted.py", line 217, in restricted\n    exec ccode in environment\n  File "/Dropbox/Dropbox/Datos/Python/Proyectos/topolab12_v2/web2py/applications/init/controllers/hasse.py", line 145, in <module>\n  File "/Dropbox/Dropbox/Datos/Python/Proyectos/topolab12_v2/web2py/gluon/globals.py", line 372, in <lambda>\n    self._caller = lambda f: f()\n  File "/Dropbox/Dropbox/Datos/Python/Proyectos/topolab12_v2/web2py/applications/init/controllers/hasse.py", line 35, in topo1\n    if form.process(onvalidation=form_processing_es_una_base).accepted:\n  File "/Dropbox/Dropbox/Datos/Python/Proyectos/topolab12_v2/web2py/gluon/html.py", line 2215, in process\n    self.validate(**kwargs)\n  File "/Dropbox/Dropbox/Datos/Python/Proyectos/topolab12_v2/web2py/gluon/html.py", line 2154, in validate\n    if self.accepts(**kwargs):\n  File "/Dropbox/Dropbox/Datos/Python/Proyectos/topolab12_v2/web2py/gluon/sqlhtml.py", line 1375, in accepts\n    **kwargs\n  File "/Dropbox/Dropbox/Datos/Python/Proyectos/topolab12_v2/web2py/gluon/html.py", line 2055, in accepts\n    call_as_list(onvalidation, self)\n  File "/Dropbox/Dropbox/Datos/Python/Proyectos/topolab12_v2/web2py/gluon/html.py", line 136, in call_as_list\n    item(*a,**b)\n  File "/Dropbox/Dropbox/Datos/Python/Proyectos/topolab12_v2/web2py/applications/init/controllers/hasse.py", line 63, in form_processing_es_una_base\n    if not es_base(puntos1, base1):\n  File "applications/init/modules/modulo_math.py", line 729, in es_base\n    base = de_llaves_a_lista(de_corchetes_a_llaves(base))\n  File "applications/init/modules/modulo_math.py", line 775, in de_llaves_a_lista\n    exec (\'result = \' + resultado)\n  File "<string>", line 1\n    result = [[6,,2,1],[5,2,1,3],[4,1],[3,1],[2,1],[1]]\n                 ^\nSyntaxError: invalid syntax\n'
p321
s.